target datalayout = "e-m:e-p270:32:32-p271:32:32-p272:64:64-i64:64-i128:128-f80:128-n8:16:32:64-S128"
target triple = "x86_64-pc-linux-gnu"

%class.MemRegion = type { ptr, i64 }
%class.G1HeapVerifier = type { ptr }
%class.CollectedHeap = type { ptr, ptr, i64, i64, %class.SoftRefPolicy, %class.MemRegion, i8, i64, i32, i32, i32, i32, ptr, ptr }
%class.SoftRefPolicy = type { i8, i8 }

@UseTLAB = external global i8, align 1
@VerifyGCStartAt = external global i64, align 8
@_ZN20SafepointSynchronize6_stateE = external global i32, align 4

; Function Attrs: mustprogress nounwind uwtable
define linkonce_odr hidden noundef zeroext i1 @_ZN20SafepointSynchronize15is_at_safepointEv() #1 comdat align 2 {
  %1 = load volatile i32, ptr @_ZN20SafepointSynchronize6_stateE, align 4
  %2 = icmp eq i32 %1, 2
  ret i1 %2
}

; Function Attrs: mustprogress nounwind uwtable
define hidden void @_ZN14G1HeapVerifier18prepare_for_verifyEv(ptr noundef nonnull align 8 dereferenceable(8) %0) #1 align 2 {
  %2 = alloca ptr, align 8
  store ptr %0, ptr %2, align 8
  %3 = load ptr, ptr %2, align 8
  %4 = call noundef zeroext i1 @_ZN20SafepointSynchronize15is_at_safepointEv()
  br i1 %4, label %8, label %5

5:                                                ; preds = %1
  %6 = load i8, ptr @UseTLAB, align 1
  %7 = trunc i8 %6 to i1
  br i1 %7, label %14, label %8

8:                                                ; preds = %5, %1
  %9 = getelementptr inbounds %class.G1HeapVerifier, ptr %3, i32 0, i32 0
  %10 = load ptr, ptr %9, align 8
  %11 = load ptr, ptr %10, align 8
  %12 = getelementptr inbounds ptr, ptr %11, i64 19
  %13 = load ptr, ptr %12, align 8
  call void %13(ptr noundef nonnull align 8 dereferenceable(104) %10, i1 noundef zeroext false)
  br label %14

14:                                               ; preds = %8, %5
  ret void
}

; Function Attrs: mustprogress nounwind uwtable
define linkonce_odr hidden noundef i32 @_ZNK13CollectedHeap17total_collectionsEv(ptr noundef nonnull align 8 dereferenceable(104) %0) #1 comdat align 2 {
  %2 = alloca ptr, align 8
  store ptr %0, ptr %2, align 8
  %3 = load ptr, ptr %2, align 8
  %4 = getelementptr inbounds %class.CollectedHeap, ptr %3, i32 0, i32 8
  %5 = load i32, ptr %4, align 8
  ret i32 %5
}

; Function Attrs: mustprogress nounwind uwtable
define hidden void @_ZN14G1HeapVerifier6verifyE12VerifyOptionPKc(ptr noundef nonnull align 8 dereferenceable(8) %0, i32 noundef %1, ptr noundef %2) #1 align 2 {
  %4 = alloca ptr, align 8
  %5 = alloca i32, align 4
  %6 = alloca ptr, align 8
  store ptr %0, ptr %4, align 8
  store i32 %1, ptr %5, align 4
  store ptr %2, ptr %6, align 8
  %7 = load ptr, ptr %4, align 8
  %8 = getelementptr inbounds %class.G1HeapVerifier, ptr %7, i32 0, i32 0
  %9 = load ptr, ptr %8, align 8
  %10 = call noundef i32 @_ZNK13CollectedHeap17total_collectionsEv(ptr noundef nonnull align 8 dereferenceable(104) %9)
  %11 = zext i32 %10 to i64
  %12 = load i64, ptr @VerifyGCStartAt, align 8
  %13 = icmp uge i64 %11, %12
  br i1 %13, label %14, label %17

14:                                               ; preds = %3
  call void @_ZN14G1HeapVerifier18prepare_for_verifyEv(ptr noundef nonnull align 8 dereferenceable(8) %7)
  %15 = load i32, ptr %5, align 4
  %16 = load ptr, ptr %6, align 8
  call void @_ZN8Universe6verifyE12VerifyOptionPKc(i32 noundef %15, ptr noundef %16)
  br label %17

17:                                               ; preds = %14, %3
  ret void
}