; Function Attrs: mustprogress nounwind uwtable
define hidden void @_ZN14G1HeapVerifier6verifyE12VerifyOptionPKc(ptr nocapture noundef nonnull readonly align 8 dereferenceable(8) %0, i32 noundef %1, ptr noundef %2) local_unnamed_addr #2 align 2 {
  %4 = load ptr, ptr %0, align 8
  %5 = getelementptr inbounds i8, ptr %4, i64 72
  %6 = load i32, ptr %5, align 8
  %7 = zext i32 %6 to i64
  %8 = load i64, ptr @VerifyGCStartAt, align 8
  %.not = icmp ugt i64 %8, %7
  br i1 %.not, label %19, label %9

9:                                                ; preds = %3
  %10 = load volatile i32, ptr @_ZN20SafepointSynchronize6_stateE, align 4
  %11 = icmp eq i32 %10, 2
  br i1 %11, label %15, label %12

12:                                               ; preds = %9
  %13 = load i8, ptr @UseTLAB, align 1
  %14 = trunc i8 %13 to i1
  br i1 %14, label %_ZN14G1HeapVerifier18prepare_for_verifyEv.exit, label %15

15:                                               ; preds = %12, %9
  %16 = load ptr, ptr %4, align 8
  %17 = getelementptr inbounds i8, ptr %16, i64 152
  %18 = load ptr, ptr %17, align 8
  tail call void %18(ptr noundef nonnull align 8 dereferenceable(104) %4, i1 noundef zeroext false) #13
  br label %_ZN14G1HeapVerifier18prepare_for_verifyEv.exit

_ZN14G1HeapVerifier18prepare_for_verifyEv.exit:   ; preds = %12, %15
  tail call void @_ZN8Universe6verifyE12VerifyOptionPKc(i32 noundef %1, ptr noundef %2) #13
  br label %19

19:                                               ; preds = %_ZN14G1HeapVerifier18prepare_for_verifyEv.exit, %3
  ret void
}